target datalayout = "e-m:e-p270:32:32-p271:32:32-p272:64:64-i64:64-i128:128-f80:128-n8:16:32:64-S128"
target triple = "x86_64-pc-linux-gnu"

%"struct.llvm::LoopVectorizeHints::Hint" = type { ptr, i32, i32 }
%"class.llvm::ElementCount" = type { %"class.llvm::details::FixedOrScalableQuantity.base", [3 x i8] }
%"class.llvm::details::FixedOrScalableQuantity.base" = type <{ i32, i8 }>
%"class.llvm::LoopVectorizeHints" = type { %"struct.llvm::LoopVectorizeHints::Hint", %"struct.llvm::LoopVectorizeHints::Hint", %"struct.llvm::LoopVectorizeHints::Hint", %"struct.llvm::LoopVectorizeHints::Hint", %"struct.llvm::LoopVectorizeHints::Hint", %"struct.llvm::LoopVectorizeHints::Hint", i8, ptr, ptr }
%"class.llvm::details::FixedOrScalableQuantity" = type <{ i32, i8, [3 x i8] }>

@.str.31 = private unnamed_addr constant [15 x i8] c"loop-vectorize\00", align 1
@_ZN4llvm26OptimizationRemarkAnalysis11AlwaysPrintE = external global ptr, align 8

; Function Attrs: mustprogress nounwind uwtable
define linkonce_odr hidden void @_ZN4llvm7details23FixedOrScalableQuantityINS_12ElementCountEjEC2Ejb(ptr noundef nonnull align 4 dereferenceable(5) %0, i32 noundef %1, i1 noundef zeroext %2) unnamed_addr #1 comdat align 2 {
  %4 = alloca ptr, align 8
  %5 = alloca i32, align 4
  %6 = alloca i8, align 1
  store ptr %0, ptr %4, align 8
  store i32 %1, ptr %5, align 4
  %7 = zext i1 %2 to i8
  store i8 %7, ptr %6, align 1
  %8 = load ptr, ptr %4, align 8
  %9 = getelementptr inbounds nuw %"class.llvm::details::FixedOrScalableQuantity", ptr %8, i32 0, i32 0
  %10 = load i32, ptr %5, align 4
  store i32 %10, ptr %9, align 4
  %11 = getelementptr inbounds nuw %"class.llvm::details::FixedOrScalableQuantity", ptr %8, i32 0, i32 1
  %12 = load i8, ptr %6, align 1
  %13 = trunc i8 %12 to i1
  %14 = zext i1 %13 to i8
  store i8 %14, ptr %11, align 4
  ret void
}

; Function Attrs: mustprogress nounwind uwtable
define linkonce_odr hidden void @_ZN4llvm12ElementCountC2Ejb(ptr noundef nonnull align 4 dereferenceable(5) %0, i32 noundef %1, i1 noundef zeroext %2) unnamed_addr #1 comdat align 2 {
  %4 = alloca ptr, align 8
  %5 = alloca i32, align 4
  %6 = alloca i8, align 1
  store ptr %0, ptr %4, align 8
  store i32 %1, ptr %5, align 4
  %7 = zext i1 %2 to i8
  store i8 %7, ptr %6, align 1
  %8 = load ptr, ptr %4, align 8
  %9 = load i32, ptr %5, align 4
  %10 = load i8, ptr %6, align 1
  %11 = trunc i8 %10 to i1
  call void @_ZN4llvm7details23FixedOrScalableQuantityINS_12ElementCountEjEC2Ejb(ptr noundef nonnull align 4 dereferenceable(5) %8, i32 noundef %9, i1 noundef zeroext %11)
  ret void
}

; Function Attrs: mustprogress nounwind uwtable
define linkonce_odr hidden i64 @_ZN4llvm12ElementCount3getEjb(i32 noundef %0, i1 noundef zeroext %1) #1 comdat align 2 {
  %3 = alloca %"class.llvm::ElementCount", align 4
  %4 = alloca i32, align 4
  %5 = alloca i8, align 1
  store i32 %0, ptr %4, align 4
  %6 = zext i1 %1 to i8
  store i8 %6, ptr %5, align 1
  %7 = load i32, ptr %4, align 4
  %8 = load i8, ptr %5, align 1
  %9 = trunc i8 %8 to i1
  call void @_ZN4llvm12ElementCountC2Ejb(ptr noundef nonnull align 4 dereferenceable(5) %3, i32 noundef %7, i1 noundef zeroext %9)
  %10 = load i64, ptr %3, align 4
  ret i64 %10
}

; Function Attrs: mustprogress nounwind uwtable
define linkonce_odr hidden noundef zeroext i1 @_ZNK4llvm7details23FixedOrScalableQuantityINS_12ElementCountEjE6isZeroEv(ptr noundef nonnull align 4 dereferenceable(5) %0) #1 comdat align 2 {
  %2 = alloca ptr, align 8
  store ptr %0, ptr %2, align 8
  %3 = load ptr, ptr %2, align 8
  %4 = getelementptr inbounds nuw %"class.llvm::details::FixedOrScalableQuantity", ptr %3, i32 0, i32 0
  %5 = load i32, ptr %4, align 4
  %6 = icmp eq i32 %5, 0
  ret i1 %6
}

; Function Attrs: mustprogress nounwind uwtable
define linkonce_odr hidden noundef i32 @_ZNK4llvm18LoopVectorizeHints8getForceEv(ptr noundef nonnull align 8 dereferenceable(120) %0) #1 comdat align 2 {
  %2 = alloca i32, align 4
  %3 = alloca ptr, align 8
  store ptr %0, ptr %3, align 8
  %4 = load ptr, ptr %3, align 8
  %5 = getelementptr inbounds nuw %"class.llvm::LoopVectorizeHints", ptr %4, i32 0, i32 2
  %6 = getelementptr inbounds nuw %"struct.llvm::LoopVectorizeHints::Hint", ptr %5, i32 0, i32 1
  %7 = load i32, ptr %6, align 8
  %8 = icmp eq i32 %7, -1
  br i1 %8, label %9, label %14

9:                                                ; preds = %1
  %10 = getelementptr inbounds nuw %"class.llvm::LoopVectorizeHints", ptr %4, i32 0, i32 7
  %11 = load ptr, ptr %10, align 8
  %12 = call noundef zeroext i1 @_ZN4llvm27hasDisableAllTransformsHintEPKNS_4LoopE(ptr noundef %11)
  br i1 %12, label %13, label %14

13:                                               ; preds = %9
  store i32 0, ptr %2, align 4
  br label %18

14:                                               ; preds = %9, %1
  %15 = getelementptr inbounds nuw %"class.llvm::LoopVectorizeHints", ptr %4, i32 0, i32 2
  %16 = getelementptr inbounds nuw %"struct.llvm::LoopVectorizeHints::Hint", ptr %15, i32 0, i32 1
  %17 = load i32, ptr %16, align 8
  store i32 %17, ptr %2, align 4
  br label %18

18:                                               ; preds = %14, %13
  %19 = load i32, ptr %2, align 4
  ret i32 %19
}

; Function Attrs: mustprogress nounwind uwtable
define linkonce_odr hidden noundef zeroext i1 @_ZNK4llvm7details23FixedOrScalableQuantityINS_12ElementCountEjEeqERKS3_(ptr noundef nonnull align 4 dereferenceable(5) %0, ptr noundef nonnull align 4 dereferenceable(5) %1) #1 comdat align 2 {
  %3 = alloca ptr, align 8
  %4 = alloca ptr, align 8
  store ptr %0, ptr %3, align 8
  store ptr %1, ptr %4, align 8
  %5 = load ptr, ptr %3, align 8
  %6 = getelementptr inbounds nuw %"class.llvm::details::FixedOrScalableQuantity", ptr %5, i32 0, i32 0
  %7 = load i32, ptr %6, align 4
  %8 = load ptr, ptr %4, align 8
  %9 = getelementptr inbounds nuw %"class.llvm::details::FixedOrScalableQuantity", ptr %8, i32 0, i32 0
  %10 = load i32, ptr %9, align 4
  %11 = icmp eq i32 %7, %10
  br i1 %11, label %12, label %23

12:                                               ; preds = %2
  %13 = getelementptr inbounds nuw %"class.llvm::details::FixedOrScalableQuantity", ptr %5, i32 0, i32 1
  %14 = load i8, ptr %13, align 4
  %15 = trunc i8 %14 to i1
  %16 = zext i1 %15 to i32
  %17 = load ptr, ptr %4, align 8
  %18 = getelementptr inbounds nuw %"class.llvm::details::FixedOrScalableQuantity", ptr %17, i32 0, i32 1
  %19 = load i8, ptr %18, align 4
  %20 = trunc i8 %19 to i1
  %21 = zext i1 %20 to i32
  %22 = icmp eq i32 %16, %21
  br label %23

23:                                               ; preds = %12, %2
  %24 = phi i1 [ false, %2 ], [ %22, %12 ]
  ret i1 %24
}

; Function Attrs: mustprogress nounwind uwtable
define linkonce_odr hidden i64 @_ZN4llvm12ElementCount8getFixedEj(i32 noundef %0) #1 comdat align 2 {
  %2 = alloca %"class.llvm::ElementCount", align 4
  %3 = alloca i32, align 4
  store i32 %0, ptr %3, align 4
  %4 = load i32, ptr %3, align 4
  call void @_ZN4llvm12ElementCountC2Ejb(ptr noundef nonnull align 4 dereferenceable(5) %2, i32 noundef %4, i1 noundef zeroext false)
  %5 = load i64, ptr %2, align 4
  ret i64 %5
}

; Function Attrs: mustprogress nounwind uwtable
define linkonce_odr hidden i64 @_ZNK4llvm18LoopVectorizeHints8getWidthEv(ptr noundef nonnull align 8 dereferenceable(120) %0) #1 comdat align 2 {
  %2 = alloca %"class.llvm::ElementCount", align 4
  %3 = alloca ptr, align 8
  store ptr %0, ptr %3, align 8
  %4 = load ptr, ptr %3, align 8
  %5 = getelementptr inbounds nuw %"class.llvm::LoopVectorizeHints", ptr %4, i32 0, i32 0
  %6 = getelementptr inbounds nuw %"struct.llvm::LoopVectorizeHints::Hint", ptr %5, i32 0, i32 1
  %7 = load i32, ptr %6, align 8
  %8 = getelementptr inbounds nuw %"class.llvm::LoopVectorizeHints", ptr %4, i32 0, i32 5
  %9 = getelementptr inbounds nuw %"struct.llvm::LoopVectorizeHints::Hint", ptr %8, i32 0, i32 1
  %10 = load i32, ptr %9, align 8
  %11 = icmp eq i32 %10, 1
  %12 = call i64 @_ZN4llvm12ElementCount3getEjb(i32 noundef %7, i1 noundef zeroext %11)
  %13 = trunc i64 %12 to i40
  store i40 %13, ptr %2, align 4
  %14 = load i64, ptr %2, align 4
  ret i64 %14
}

; Function Attrs: mustprogress nounwind uwtable
define dso_local noundef ptr @_ZNK4llvm18LoopVectorizeHints25vectorizeAnalysisPassNameEv(ptr noundef nonnull align 8 dereferenceable(120) %0) #1 align 2 {
  %2 = alloca ptr, align 8
  %3 = alloca ptr, align 8
  %4 = alloca %"class.llvm::ElementCount", align 4
  %5 = alloca %"class.llvm::ElementCount", align 4
  %6 = alloca %"class.llvm::ElementCount", align 4
  store ptr %0, ptr %3, align 8
  %7 = load ptr, ptr %3, align 8
  %8 = call i64 @_ZNK4llvm18LoopVectorizeHints8getWidthEv(ptr noundef nonnull align 8 dereferenceable(120) %7)
  %9 = trunc i64 %8 to i40
  store i40 %9, ptr %4, align 4
  %10 = call i64 @_ZN4llvm12ElementCount8getFixedEj(i32 noundef 1)
  %11 = trunc i64 %10 to i40
  store i40 %11, ptr %5, align 4
  %12 = call noundef zeroext i1 @_ZNK4llvm7details23FixedOrScalableQuantityINS_12ElementCountEjEeqERKS3_(ptr noundef nonnull align 4 dereferenceable(5) %4, ptr noundef nonnull align 4 dereferenceable(5) %5)
  br i1 %12, label %13, label %14

13:                                               ; preds = %1
  store ptr @.str.31, ptr %2, align 8
  br label %30

14:                                               ; preds = %1
  %15 = call noundef i32 @_ZNK4llvm18LoopVectorizeHints8getForceEv(ptr noundef nonnull align 8 dereferenceable(120) %7)
  %16 = icmp eq i32 %15, 0
  br i1 %16, label %17, label %18

17:                                               ; preds = %14
  store ptr @.str.31, ptr %2, align 8
  br label %30

18:                                               ; preds = %14
  %19 = call noundef i32 @_ZNK4llvm18LoopVectorizeHints8getForceEv(ptr noundef nonnull align 8 dereferenceable(120) %7)
  %20 = icmp eq i32 %19, -1
  br i1 %20, label %21, label %25

21:                                               ; preds = %18
  %22 = call i64 @_ZNK4llvm18LoopVectorizeHints8getWidthEv(ptr noundef nonnull align 8 dereferenceable(120) %7)
  %23 = trunc i64 %22 to i40
  store i40 %23, ptr %6, align 4
  %24 = call noundef zeroext i1 @_ZNK4llvm7details23FixedOrScalableQuantityINS_12ElementCountEjE6isZeroEv(ptr noundef nonnull align 4 dereferenceable(5) %6)
  br label %25

25:                                               ; preds = %21, %18
  %26 = phi i1 [ false, %18 ], [ %24, %21 ]
  br i1 %26, label %27, label %28

27:                                               ; preds = %25
  store ptr @.str.31, ptr %2, align 8
  br label %30

28:                                               ; preds = %25
  %29 = load ptr, ptr @_ZN4llvm26OptimizationRemarkAnalysis11AlwaysPrintE, align 8
  store ptr %29, ptr %2, align 8
  br label %30

30:                                               ; preds = %28, %27, %17, %13
  %31 = load ptr, ptr %2, align 8
  ret ptr %31
}