; Function Attrs: mustprogress nounwind uwtable
define dso_local noundef ptr @_ZNK4llvm18LoopVectorizeHints25vectorizeAnalysisPassNameEv(ptr noundef nonnull readonly align 8 captures(none) dereferenceable(120) %0) local_unnamed_addr #0 align 2 {
  %2 = getelementptr inbounds nuw i8, ptr %0, i64 8
  %3 = load i32, ptr %2, align 8
  %4 = getelementptr inbounds nuw i8, ptr %0, i64 88
  %5 = load i32, ptr %4, align 8
  %6 = icmp ne i32 %5, 1
  %7 = icmp eq i32 %3, 1
  %or.cond = and i1 %7, %6
  br i1 %or.cond, label %_ZNK4llvm18LoopVectorizeHints8getForceEv.exit.thread, label %_ZNK4llvm7details23FixedOrScalableQuantityINS_12ElementCountEjEeqERKS3_.exit.thread

_ZNK4llvm7details23FixedOrScalableQuantityINS_12ElementCountEjEeqERKS3_.exit.thread: ; preds = %1
  %8 = getelementptr inbounds nuw i8, ptr %0, i64 40
  %9 = load i32, ptr %8, align 8
  %10 = icmp eq i32 %9, -1
  br i1 %10, label %11, label %_ZNK4llvm18LoopVectorizeHints8getForceEv.exit

11:                                               ; preds = %_ZNK4llvm7details23FixedOrScalableQuantityINS_12ElementCountEjEeqERKS3_.exit.thread
  %12 = getelementptr inbounds nuw i8, ptr %0, i64 104
  %13 = load ptr, ptr %12, align 8
  %14 = tail call noundef zeroext i1 @_ZN4llvm27hasDisableAllTransformsHintEPKNS_4LoopE(ptr noundef %13) #20
  %.pre.i = load i32, ptr %8, align 8
  br i1 %14, label %_ZNK4llvm18LoopVectorizeHints8getForceEv.exit.thread, label %_ZNK4llvm18LoopVectorizeHints8getForceEv.exit

_ZNK4llvm18LoopVectorizeHints8getForceEv.exit:    ; preds = %11, %_ZNK4llvm7details23FixedOrScalableQuantityINS_12ElementCountEjEeqERKS3_.exit.thread
  %15 = phi i32 [ %9, %_ZNK4llvm7details23FixedOrScalableQuantityINS_12ElementCountEjEeqERKS3_.exit.thread ], [ %.pre.i, %11 ]
  switch i32 %15, label %.critedge [
    i32 0, label %_ZNK4llvm18LoopVectorizeHints8getForceEv.exit.thread
    i32 -1, label %16
  ]

16:                                               ; preds = %_ZNK4llvm18LoopVectorizeHints8getForceEv.exit
  %17 = getelementptr inbounds nuw i8, ptr %0, i64 104
  %18 = load ptr, ptr %17, align 8
  %19 = tail call noundef zeroext i1 @_ZN4llvm27hasDisableAllTransformsHintEPKNS_4LoopE(ptr noundef %18) #20
  %.pre.i3 = load i32, ptr %8, align 8
  %20 = icmp eq i32 %.pre.i3, -1
  %not. = xor i1 %19, true
  %or.cond16.not = select i1 %not., i1 %20, i1 false
  %21 = load i32, ptr %2, align 8
  %22 = icmp eq i32 %21, 0
  %or.cond19 = select i1 %or.cond16.not, i1 %22, i1 false
  br i1 %or.cond19, label %_ZNK4llvm18LoopVectorizeHints8getForceEv.exit.thread, label %.critedge

.critedge:                                        ; preds = %_ZNK4llvm18LoopVectorizeHints8getForceEv.exit, %16
  %23 = load ptr, ptr @_ZN4llvm26OptimizationRemarkAnalysis11AlwaysPrintE, align 8
  br label %_ZNK4llvm18LoopVectorizeHints8getForceEv.exit.thread

_ZNK4llvm18LoopVectorizeHints8getForceEv.exit.thread: ; preds = %_ZNK4llvm18LoopVectorizeHints8getForceEv.exit, %16, %1, %11, %.critedge
  %.0 = phi ptr [ %23, %.critedge ], [ @.str.31, %_ZNK4llvm18LoopVectorizeHints8getForceEv.exit ], [ @.str.31, %11 ], [ @.str.31, %1 ], [ @.str.31, %16 ]
  ret ptr %.0
}